target datalayout = "e-m:e-p270:32:32-p271:32:32-p272:64:64-i64:64-i128:128-f80:128-n8:16:32:64-S128"
target triple = "x86_64-pc-linux-gnu"

%"class.testing::internal::ParamGenerator" = type { %"class.testing::internal::linked_ptr" }
%"class.testing::internal::linked_ptr" = type { ptr, %"class.testing::internal::linked_ptr_internal" }
%"class.testing::internal::linked_ptr_internal" = type { ptr }
%"class.testing::internal::ValueArray2" = type { ptr, ptr }

@.str.30 = private unnamed_addr constant [4 x i8] c"orb\00", align 1
@.str.90 = private unnamed_addr constant [6 x i8] c"akaze\00", align 1

; Function Attrs: mustprogress nounwind uwtable
define linkonce_odr hidden void @_ZN7testing8internal11ValueArray2IPKcS3_EC2ES3_S3_(ptr noundef nonnull align 8 dereferenceable(16) %0, ptr noundef %1, ptr noundef %2) unnamed_addr #9 comdat align 2 {
  %4 = alloca ptr, align 8
  %5 = alloca ptr, align 8
  %6 = alloca ptr, align 8
  store ptr %0, ptr %4, align 8, !tbaa !400
  store ptr %1, ptr %5, align 8, !tbaa !54
  store ptr %2, ptr %6, align 8, !tbaa !54
  %7 = load ptr, ptr %4, align 8
  %8 = getelementptr inbounds nuw %"class.testing::internal::ValueArray2", ptr %7, i32 0, i32 0
  %9 = load ptr, ptr %5, align 8, !tbaa !54
  store ptr %9, ptr %8, align 8, !tbaa !402
  %10 = getelementptr inbounds nuw %"class.testing::internal::ValueArray2", ptr %7, i32 0, i32 1
  %11 = load ptr, ptr %6, align 8, !tbaa !54
  store ptr %11, ptr %10, align 8, !tbaa !404
  ret void
}

; Function Attrs: mustprogress uwtable
define linkonce_odr hidden void @_ZN7testing6ValuesIPKcS2_EENS_8internal11ValueArray2IT_T0_EES5_S6_(ptr dead_on_unwind noalias writable sret(%"class.testing::internal::ValueArray2") align 8 %0, ptr noundef %1, ptr noundef %2) #6 comdat {
  %4 = alloca ptr, align 8
  %5 = alloca ptr, align 8
  %6 = alloca ptr, align 8
  store ptr %0, ptr %4, align 8
  store ptr %1, ptr %5, align 8, !tbaa !54
  store ptr %2, ptr %6, align 8, !tbaa !54
  %7 = load ptr, ptr %5, align 8, !tbaa !54
  %8 = load ptr, ptr %6, align 8, !tbaa !54
  call void @_ZN7testing8internal11ValueArray2IPKcS3_EC2ES3_S3_(ptr noundef nonnull align 8 dereferenceable(16) %0, ptr noundef %7, ptr noundef %8)
  ret void
}

; Function Attrs: mustprogress uwtable
define internal void @_ZN11opencv_testL31gtest_stitch_b12_EvalGenerator_B5cxx11Ev(ptr dead_on_unwind noalias writable sret(%"class.testing::internal::ParamGenerator") align 8 %0) #6 {
  %2 = alloca ptr, align 8
  %3 = alloca %"class.testing::internal::ValueArray2", align 8
  store ptr %0, ptr %2, align 8
  call void @llvm.lifetime.start.p0(i64 16, ptr %3) #3
  call void @_ZN7testing6ValuesIPKcS2_EENS_8internal11ValueArray2IT_T0_EES5_S6_(ptr dead_on_unwind writable sret(%"class.testing::internal::ValueArray2") align 8 %3, ptr noundef @.str.30, ptr noundef @.str.90)
  call void @_ZNK7testing8internal11ValueArray2IPKcS3_EcvNS0_14ParamGeneratorIT_EEINSt7__cxx1112basic_stringIcSt11char_traitsIcESaIcEEEEEv(ptr dead_on_unwind writable sret(%"class.testing::internal::ParamGenerator") align 8 %0, ptr noundef nonnull align 8 dereferenceable(16) %3)
  call void @llvm.lifetime.end.p0(i64 16, ptr %3) #3
  ret void
}